target datalayout = "e-m:e-p270:32:32-p271:32:32-p272:64:64-i64:64-i128:128-f80:128-n8:16:32:64-S128"
target triple = "x86_64-pc-linux-gnu"

%"class.std::__cxx11::basic_string" = type { %"struct.std::__cxx11::basic_string<char>::_Alloc_hider", i64, %union.anon }
%"struct.std::__cxx11::basic_string<char>::_Alloc_hider" = type { ptr }
%union.anon = type { i64, [8 x i8] }
%"struct.std::_Rb_tree_key_compare" = type { %"struct.std::less" }
%"struct.std::less" = type { i8 }
%"struct.std::_Rb_tree_header" = type { %"struct.std::_Rb_tree_node_base", i64 }
%"struct.std::_Rb_tree_node_base" = type { i32, ptr, ptr, ptr }
%"class.std::vector.41" = type { %"struct.std::_Vector_base.42" }
%"struct.std::_Vector_base.42" = type { %"struct.std::_Vector_base<std::__cxx11::basic_string<char>, std::allocator<std::__cxx11::basic_string<char>>>::_Vector_impl" }
%"struct.std::_Vector_base<std::__cxx11::basic_string<char>, std::allocator<std::__cxx11::basic_string<char>>>::_Vector_impl" = type { %"struct.std::_Vector_base<std::__cxx11::basic_string<char>, std::allocator<std::__cxx11::basic_string<char>>>::_Vector_impl_data" }
%"struct.std::_Vector_base<std::__cxx11::basic_string<char>, std::allocator<std::__cxx11::basic_string<char>>>::_Vector_impl_data" = type { ptr, ptr, ptr }
%"class.std::optional.51" = type { %"struct.std::_Optional_base.52" }
%"struct.std::_Optional_base.52" = type { %"struct.std::_Optional_payload.54" }
%"struct.std::_Optional_payload.54" = type { %"struct.std::_Optional_payload_base.55" }
%"struct.std::_Optional_payload_base.55" = type { %"union.std::_Optional_payload_base<bool>::_Storage", i8 }
%"union.std::_Optional_payload_base<bool>::_Storage" = type { %"struct.std::_Optional_payload_base<bool>::_Empty_byte" }
%"struct.std::_Optional_payload_base<bool>::_Empty_byte" = type { i8 }
%"class.cmCMakePresetsGraph::Preset" = type { ptr, %"class.std::__cxx11::basic_string", %"class.std::vector.41", i8, ptr, %"class.std::__cxx11::basic_string", %"class.std::__cxx11::basic_string", %"class.std::shared_ptr", i8, %"class.std::map.72" }
%"class.std::shared_ptr" = type { %"class.std::__shared_ptr" }
%"class.std::__shared_ptr" = type { ptr, %"class.std::__shared_count" }
%"class.std::__shared_count" = type { ptr }
%"class.std::map.72" = type { %"class.std::_Rb_tree.73" }
%"class.std::_Rb_tree.73" = type { %"struct.std::_Rb_tree<std::__cxx11::basic_string<char>, std::pair<const std::__cxx11::basic_string<char>, std::optional<std::__cxx11::basic_string<char>>>, std::_Select1st<std::pair<const std::__cxx11::basic_string<char>, std::optional<std::__cxx11::basic_string<char>>>>, std::less<std::__cxx11::basic_string<char>>>::_Rb_tree_impl" }
%"struct.std::_Rb_tree<std::__cxx11::basic_string<char>, std::pair<const std::__cxx11::basic_string<char>, std::optional<std::__cxx11::basic_string<char>>>, std::_Select1st<std::pair<const std::__cxx11::basic_string<char>, std::optional<std::__cxx11::basic_string<char>>>>, std::less<std::__cxx11::basic_string<char>>>::_Rb_tree_impl" = type { %"struct.std::_Rb_tree_key_compare", %"struct.std::_Rb_tree_header" }
%"class.std::optional.118" = type { %"struct.std::_Optional_base.119" }
%"struct.std::_Optional_base.119" = type { %"struct.std::_Optional_payload.121" }
%"struct.std::_Optional_payload.121" = type { %"struct.std::_Optional_payload_base.base.123", [3 x i8] }
%"struct.std::_Optional_payload_base.base.123" = type <{ %"union.std::_Optional_payload_base<int>::_Storage", i8 }>
%"union.std::_Optional_payload_base<int>::_Storage" = type { i32 }
%"class.cmCMakePresetsGraph::TestPreset" = type { %"class.cmCMakePresetsGraph::Preset", %"class.std::__cxx11::basic_string", %"class.std::optional.51", %"class.std::__cxx11::basic_string", %"class.std::vector.41", %"class.std::optional.134", %"class.std::optional.160", %"class.std::optional.215" }
%"class.std::optional.134" = type { %"struct.std::_Optional_base.135" }
%"struct.std::_Optional_base.135" = type { %"struct.std::_Optional_payload.137" }
%"struct.std::_Optional_payload.137" = type { %"struct.std::_Optional_payload.base.157", [7 x i8] }
%"struct.std::_Optional_payload.base.157" = type { %"struct.std::_Optional_payload_base.base.156" }
%"struct.std::_Optional_payload_base.base.156" = type { %"union.std::_Optional_payload_base<cmCMakePresetsGraph::TestPreset::OutputOptions>::_Storage", i8 }
%"union.std::_Optional_payload_base<cmCMakePresetsGraph::TestPreset::OutputOptions>::_Storage" = type { %"struct.cmCMakePresetsGraph::TestPreset::OutputOptions" }
%"struct.cmCMakePresetsGraph::TestPreset::OutputOptions" = type <{ %"class.std::optional.51", [2 x i8], %"class.std::optional.140", %"class.std::optional.51", %"class.std::optional.51", %"class.std::optional.51", [6 x i8], %"class.std::__cxx11::basic_string", %"class.std::__cxx11::basic_string", %"class.std::optional.51", %"class.std::optional.51", %"class.std::optional.118", %"class.std::optional.118", %"class.std::optional.148", %"class.std::optional.118", [4 x i8] }>
%"class.std::optional.140" = type { %"struct.std::_Optional_base.141" }
%"struct.std::_Optional_base.141" = type { %"struct.std::_Optional_payload.143" }
%"struct.std::_Optional_payload.143" = type { %"struct.std::_Optional_payload_base.base.145", [3 x i8] }
%"struct.std::_Optional_payload_base.base.145" = type <{ %"union.std::_Optional_payload_base<cmCMakePresetsGraph::TestPreset::OutputOptions::VerbosityEnum>::_Storage", i8 }>
%"union.std::_Optional_payload_base<cmCMakePresetsGraph::TestPreset::OutputOptions::VerbosityEnum>::_Storage" = type { i32 }
%"class.std::optional.148" = type { %"struct.std::_Optional_base.149" }
%"struct.std::_Optional_base.149" = type { %"struct.std::_Optional_payload.151" }
%"struct.std::_Optional_payload.151" = type { %"struct.std::_Optional_payload_base.base.153", [3 x i8] }
%"struct.std::_Optional_payload_base.base.153" = type <{ %"union.std::_Optional_payload_base<cmCTestTypes::TruncationMode>::_Storage", i8 }>
%"union.std::_Optional_payload_base<cmCTestTypes::TruncationMode>::_Storage" = type { i32 }
%"class.std::optional.160" = type { %"struct.std::_Optional_base.161" }
%"struct.std::_Optional_base.161" = type { %"struct.std::_Optional_payload.163" }
%"struct.std::_Optional_payload.163" = type { %"struct.std::_Optional_payload.base.212", [7 x i8] }
%"struct.std::_Optional_payload.base.212" = type { %"struct.std::_Optional_payload_base.base.211" }
%"struct.std::_Optional_payload_base.base.211" = type { %"union.std::_Optional_payload_base<cmCMakePresetsGraph::TestPreset::FilterOptions>::_Storage", i8 }
%"union.std::_Optional_payload_base<cmCMakePresetsGraph::TestPreset::FilterOptions>::_Storage" = type { %"struct.cmCMakePresetsGraph::TestPreset::FilterOptions" }
%"struct.cmCMakePresetsGraph::TestPreset::FilterOptions" = type { %"class.std::optional.166", %"class.std::optional.191" }
%"class.std::optional.166" = type { %"struct.std::_Optional_base.167" }
%"struct.std::_Optional_base.167" = type { %"struct.std::_Optional_payload.169" }
%"struct.std::_Optional_payload.169" = type { %"struct.std::_Optional_payload.base.188", [7 x i8] }
%"struct.std::_Optional_payload.base.188" = type { %"struct.std::_Optional_payload_base.base.187" }
%"struct.std::_Optional_payload_base.base.187" = type { %"union.std::_Optional_payload_base<cmCMakePresetsGraph::TestPreset::IncludeOptions>::_Storage", i8 }
%"union.std::_Optional_payload_base<cmCMakePresetsGraph::TestPreset::IncludeOptions>::_Storage" = type { %"struct.cmCMakePresetsGraph::TestPreset::IncludeOptions" }
%"struct.cmCMakePresetsGraph::TestPreset::IncludeOptions" = type <{ %"class.std::__cxx11::basic_string", %"class.std::__cxx11::basic_string", %"class.std::optional.172", %"class.std::optional.51", [6 x i8] }>
%"class.std::optional.172" = type { %"struct.std::_Optional_base.173" }
%"struct.std::_Optional_base.173" = type { %"struct.std::_Optional_payload.175" }
%"struct.std::_Optional_payload.175" = type { %"struct.std::_Optional_payload.base.184", [7 x i8] }
%"struct.std::_Optional_payload.base.184" = type { %"struct.std::_Optional_payload_base.base.183" }
%"struct.std::_Optional_payload_base.base.183" = type <{ %"union.std::_Optional_payload_base<cmCMakePresetsGraph::TestPreset::IncludeOptions::IndexOptions>::_Storage", i8 }>
%"union.std::_Optional_payload_base<cmCMakePresetsGraph::TestPreset::IncludeOptions::IndexOptions>::_Storage" = type { %"struct.cmCMakePresetsGraph::TestPreset::IncludeOptions::IndexOptions" }
%"struct.cmCMakePresetsGraph::TestPreset::IncludeOptions::IndexOptions" = type { %"class.std::optional.118", %"class.std::optional.118", %"class.std::optional.118", %"class.std::vector.178", %"class.std::__cxx11::basic_string" }
%"class.std::vector.178" = type { %"struct.std::_Vector_base.179" }
%"struct.std::_Vector_base.179" = type { %"struct.std::_Vector_base<int, std::allocator<int>>::_Vector_impl" }
%"struct.std::_Vector_base<int, std::allocator<int>>::_Vector_impl" = type { %"struct.std::_Vector_base<int, std::allocator<int>>::_Vector_impl_data" }
%"struct.std::_Vector_base<int, std::allocator<int>>::_Vector_impl_data" = type { ptr, ptr, ptr }
%"class.std::optional.191" = type { %"struct.std::_Optional_base.192" }
%"struct.std::_Optional_base.192" = type { %"struct.std::_Optional_payload.194" }
%"struct.std::_Optional_payload.194" = type { %"struct.std::_Optional_payload.base.208", [7 x i8] }
%"struct.std::_Optional_payload.base.208" = type { %"struct.std::_Optional_payload_base.base.207" }
%"struct.std::_Optional_payload_base.base.207" = type <{ %"union.std::_Optional_payload_base<cmCMakePresetsGraph::TestPreset::ExcludeOptions>::_Storage", i8 }>
%"union.std::_Optional_payload_base<cmCMakePresetsGraph::TestPreset::ExcludeOptions>::_Storage" = type { %"struct.cmCMakePresetsGraph::TestPreset::ExcludeOptions" }
%"struct.cmCMakePresetsGraph::TestPreset::ExcludeOptions" = type { %"class.std::__cxx11::basic_string", %"class.std::__cxx11::basic_string", %"class.std::optional.197" }
%"class.std::optional.197" = type { %"struct.std::_Optional_base.198" }
%"struct.std::_Optional_base.198" = type { %"struct.std::_Optional_payload.200" }
%"struct.std::_Optional_payload.200" = type { %"struct.std::_Optional_payload.base.204", [7 x i8] }
%"struct.std::_Optional_payload.base.204" = type { %"struct.std::_Optional_payload_base.base.203" }
%"struct.std::_Optional_payload_base.base.203" = type <{ %"union.std::_Optional_payload_base<cmCMakePresetsGraph::TestPreset::ExcludeOptions::FixturesOptions>::_Storage", i8 }>
%"union.std::_Optional_payload_base<cmCMakePresetsGraph::TestPreset::ExcludeOptions::FixturesOptions>::_Storage" = type { %"struct.cmCMakePresetsGraph::TestPreset::ExcludeOptions::FixturesOptions" }
%"struct.cmCMakePresetsGraph::TestPreset::ExcludeOptions::FixturesOptions" = type { %"class.std::__cxx11::basic_string", %"class.std::__cxx11::basic_string", %"class.std::__cxx11::basic_string" }
%"class.std::optional.215" = type { %"struct.std::_Optional_base.216" }
%"struct.std::_Optional_base.216" = type { %"struct.std::_Optional_payload.218" }
%"struct.std::_Optional_payload.218" = type { %"struct.std::_Optional_payload.base.246", [7 x i8] }
%"struct.std::_Optional_payload.base.246" = type { %"struct.std::_Optional_payload_base.base.245" }
%"struct.std::_Optional_payload_base.base.245" = type <{ %"union.std::_Optional_payload_base<cmCMakePresetsGraph::TestPreset::ExecutionOptions>::_Storage", i8 }>
%"union.std::_Optional_payload_base<cmCMakePresetsGraph::TestPreset::ExecutionOptions>::_Storage" = type { %"struct.cmCMakePresetsGraph::TestPreset::ExecutionOptions" }
%"struct.cmCMakePresetsGraph::TestPreset::ExecutionOptions" = type { %"class.std::optional.51", %"class.std::optional.51", %"class.std::optional.118", %"class.std::__cxx11::basic_string", %"class.std::optional.118", %"class.std::optional.221", %"class.std::optional.229", %"class.std::optional.51", %"class.std::optional.51", %"class.std::optional.118", %"class.std::optional.237" }
%"class.std::optional.221" = type { %"struct.std::_Optional_base.222" }
%"struct.std::_Optional_base.222" = type { %"struct.std::_Optional_payload.224" }
%"struct.std::_Optional_payload.224" = type { %"struct.std::_Optional_payload_base.base.226", [3 x i8] }
%"struct.std::_Optional_payload_base.base.226" = type <{ %"union.std::_Optional_payload_base<cmCMakePresetsGraph::TestPreset::ExecutionOptions::ShowOnlyEnum>::_Storage", i8 }>
%"union.std::_Optional_payload_base<cmCMakePresetsGraph::TestPreset::ExecutionOptions::ShowOnlyEnum>::_Storage" = type { i32 }
%"class.std::optional.229" = type { %"struct.std::_Optional_base.230" }
%"struct.std::_Optional_base.230" = type { %"struct.std::_Optional_payload.232" }
%"struct.std::_Optional_payload.232" = type { %"struct.std::_Optional_payload_base.base.234", [3 x i8] }
%"struct.std::_Optional_payload_base.base.234" = type <{ %"union.std::_Optional_payload_base<cmCMakePresetsGraph::TestPreset::ExecutionOptions::RepeatOptions>::_Storage", i8 }>
%"union.std::_Optional_payload_base<cmCMakePresetsGraph::TestPreset::ExecutionOptions::RepeatOptions>::_Storage" = type { %"struct.cmCMakePresetsGraph::TestPreset::ExecutionOptions::RepeatOptions" }
%"struct.cmCMakePresetsGraph::TestPreset::ExecutionOptions::RepeatOptions" = type { i32, i32 }
%"class.std::optional.237" = type { %"struct.std::_Optional_base.238" }
%"struct.std::_Optional_base.238" = type { %"struct.std::_Optional_payload.240" }
%"struct.std::_Optional_payload.240" = type { %"struct.std::_Optional_payload_base.base.242", [3 x i8] }
%"struct.std::_Optional_payload_base.base.242" = type <{ %"union.std::_Optional_payload_base<cmCMakePresetsGraph::TestPreset::ExecutionOptions::NoTestsActionEnum>::_Storage", i8 }>
%"union.std::_Optional_payload_base<cmCMakePresetsGraph::TestPreset::ExecutionOptions::NoTestsActionEnum>::_Storage" = type { i32 }

; Function Attrs: mustprogress nounwind uwtable
define dso_local noundef zeroext i1 @_ZN19cmCMakePresetsGraph10TestPreset23VisitPresetAfterInheritEiP11cmJSONState(ptr noundef nonnull align 8 dereferenceable(904) %0, i32 noundef %1, ptr noundef %2) unnamed_addr #5 align 2 {
  %4 = alloca i1, align 1
  %5 = alloca ptr, align 8
  %6 = alloca i32, align 4
  %7 = alloca ptr, align 8
  %8 = alloca ptr, align 8
  store ptr %0, ptr %5, align 8
  store i32 %1, ptr %6, align 4
  store ptr %2, ptr %7, align 8
  %9 = load ptr, ptr %5, align 8
  store ptr %9, ptr %8, align 8
  %10 = load ptr, ptr %8, align 8
  %11 = getelementptr inbounds %"class.cmCMakePresetsGraph::Preset", ptr %10, i32 0, i32 3
  %12 = load i8, ptr %11, align 8
  %13 = trunc i8 %12 to i1
  br i1 %13, label %19, label %14

14:                                               ; preds = %3
  %15 = load ptr, ptr %8, align 8
  %16 = getelementptr inbounds %"class.cmCMakePresetsGraph::TestPreset", ptr %15, i32 0, i32 1
  %17 = call noundef zeroext i1 @_ZNKSt7__cxx1112basic_stringIcSt11char_traitsIcESaIcEE5emptyEv(ptr noundef nonnull align 8 dereferenceable(32) %16) #3
  br i1 %17, label %18, label %19

18:                                               ; preds = %14
  store i1 false, ptr %4, align 1
  br label %20

19:                                               ; preds = %14, %3
  store i1 true, ptr %4, align 1
  br label %20

20:                                               ; preds = %19, %18
  %21 = load i1, ptr %4, align 1
  ret i1 %21
}